target datalayout = "e-m:e-p270:32:32-p271:32:32-p272:64:64-i64:64-i128:128-f80:128-n8:16:32:64-S128"
target triple = "x86_64-pc-linux-gnu"

%"class.std::__cxx11::basic_string" = type { %"struct.std::__cxx11::basic_string<char>::_Alloc_hider", i64, %union.anon }
%"struct.std::__cxx11::basic_string<char>::_Alloc_hider" = type { ptr }
%union.anon = type { i64, [8 x i8] }
%"class.std::allocator" = type { i8 }
%"class.nblib::Box" = type { [3 x [3 x float]] }

@.str = private unnamed_addr constant [35 x i8] c"Cannot have NaN or Inf box length.\00", align 1
@_ZTIN5nblib14InputExceptionE = linkonce_odr constant { ptr, ptr, ptr } { ptr getelementptr inbounds (ptr, ptr @_ZTVN10__cxxabiv120__si_class_type_infoE, i64 2), ptr @_ZTSN5nblib14InputExceptionE, ptr @_ZTIN5nblib14NbLibExceptionE }, comdat, align 8

; Function Attrs: mustprogress nounwind uwtable
define linkonce_odr noundef zeroext i1 @_ZSt5isinff(float noundef %0) #2 comdat {
  %2 = alloca float, align 4
  store float %0, ptr %2, align 4
  %3 = load float, ptr %2, align 4
  %4 = call i1 @llvm.is.fpclass.f32(float %3, i32 516)
  ret i1 %4
}

; Function Attrs: mustprogress nounwind uwtable
define linkonce_odr noundef zeroext i1 @_ZSt5isnanf(float noundef %0) #2 comdat {
  %2 = alloca float, align 4
  store float %0, ptr %2, align 4
  %3 = load float, ptr %2, align 4
  %4 = call i1 @llvm.is.fpclass.f32(float %3, i32 3)
  ret i1 %4
}

; Function Attrs: mustprogress uwtable
define void @_ZN5nblib3BoxC2Efff(ptr noundef nonnull align 4 dereferenceable(36) %0, float noundef %1, float noundef %2, float noundef %3) unnamed_addr #0 align 2 personality ptr @__gxx_personality_v0 {
  %5 = alloca ptr, align 8
  %6 = alloca float, align 4
  %7 = alloca float, align 4
  %8 = alloca float, align 4
  %9 = alloca %"class.std::__cxx11::basic_string", align 8
  %10 = alloca %"class.std::allocator", align 1
  %11 = alloca ptr, align 8
  %12 = alloca i32, align 4
  %13 = alloca i1, align 1
  store ptr %0, ptr %5, align 8
  store float %1, ptr %6, align 4
  store float %2, ptr %7, align 4
  store float %3, ptr %8, align 4
  %14 = load ptr, ptr %5, align 8
  %15 = getelementptr inbounds %"class.nblib::Box", ptr %14, i32 0, i32 0
  call void @llvm.memset.p0.i64(ptr align 4 %15, i8 0, i64 36, i1 false)
  %16 = load float, ptr %6, align 4
  %17 = call noundef zeroext i1 @_ZSt5isnanf(float noundef %16)
  br i1 %17, label %33, label %18

18:                                               ; preds = %4
  %19 = load float, ptr %6, align 4
  %20 = call noundef zeroext i1 @_ZSt5isinff(float noundef %19)
  br i1 %20, label %33, label %21

21:                                               ; preds = %18
  %22 = load float, ptr %7, align 4
  %23 = call noundef zeroext i1 @_ZSt5isnanf(float noundef %22)
  br i1 %23, label %33, label %24

24:                                               ; preds = %21
  %25 = load float, ptr %7, align 4
  %26 = call noundef zeroext i1 @_ZSt5isinff(float noundef %25)
  br i1 %26, label %33, label %27

27:                                               ; preds = %24
  %28 = load float, ptr %8, align 4
  %29 = call noundef zeroext i1 @_ZSt5isnanf(float noundef %28)
  br i1 %29, label %33, label %30

30:                                               ; preds = %27
  %31 = load float, ptr %8, align 4
  %32 = call noundef zeroext i1 @_ZSt5isinff(float noundef %31)
  br i1 %32, label %33, label %49

33:                                               ; preds = %30, %27, %24, %21, %18, %4
  store i1 true, ptr %13, align 1
  %34 = call ptr @__cxa_allocate_exception(i64 40) #9
  call void @_ZNSaIcEC1Ev(ptr noundef nonnull align 1 dereferenceable(1) %10) #9
  invoke void @_ZNSt7__cxx1112basic_stringIcSt11char_traitsIcESaIcEEC2IS3_EEPKcRKS3_(ptr noundef nonnull align 8 dereferenceable(32) %9, ptr noundef @.str, ptr noundef nonnull align 1 dereferenceable(1) %10)
          to label %35 unwind label %37

35:                                               ; preds = %33
  invoke void @_ZN5nblib14InputExceptionCI2NS_14NbLibExceptionEERKNSt7__cxx1112basic_stringIcSt11char_traitsIcESaIcEEE(ptr noundef nonnull align 8 dereferenceable(40) %34, ptr noundef nonnull align 8 dereferenceable(32) %9)
          to label %36 unwind label %41

36:                                               ; preds = %35
  store i1 false, ptr %13, align 1
  invoke void @__cxa_throw(ptr %34, ptr @_ZTIN5nblib14InputExceptionE, ptr @_ZN5nblib14InputExceptionD2Ev) #10
          to label %67 unwind label %41

37:                                               ; preds = %33
  %38 = landingpad { ptr, i32 }
          cleanup
  %39 = extractvalue { ptr, i32 } %38, 0
  store ptr %39, ptr %11, align 8
  %40 = extractvalue { ptr, i32 } %38, 1
  store i32 %40, ptr %12, align 4
  br label %45

41:                                               ; preds = %36, %35
  %42 = landingpad { ptr, i32 }
          cleanup
  %43 = extractvalue { ptr, i32 } %42, 0
  store ptr %43, ptr %11, align 8
  %44 = extractvalue { ptr, i32 } %42, 1
  store i32 %44, ptr %12, align 4
  call void @_ZNSt7__cxx1112basic_stringIcSt11char_traitsIcESaIcEED1Ev(ptr noundef nonnull align 8 dereferenceable(32) %9) #9
  br label %45

45:                                               ; preds = %41, %37
  call void @_ZNSaIcED1Ev(ptr noundef nonnull align 1 dereferenceable(1) %10) #9
  %46 = load i1, ptr %13, align 1
  br i1 %46, label %47, label %48

47:                                               ; preds = %45
  call void @__cxa_free_exception(ptr %34) #9
  br label %48

48:                                               ; preds = %47, %45
  br label %62

49:                                               ; preds = %30
  %50 = load float, ptr %6, align 4
  %51 = getelementptr inbounds %"class.nblib::Box", ptr %14, i32 0, i32 0
  %52 = getelementptr inbounds [3 x [3 x float]], ptr %51, i64 0, i64 0
  %53 = getelementptr inbounds [3 x float], ptr %52, i64 0, i64 0
  store float %50, ptr %53, align 4
  %54 = load float, ptr %7, align 4
  %55 = getelementptr inbounds %"class.nblib::Box", ptr %14, i32 0, i32 0
  %56 = getelementptr inbounds [3 x [3 x float]], ptr %55, i64 0, i64 1
  %57 = getelementptr inbounds [3 x float], ptr %56, i64 0, i64 1
  store float %54, ptr %57, align 4
  %58 = load float, ptr %8, align 4
  %59 = getelementptr inbounds %"class.nblib::Box", ptr %14, i32 0, i32 0
  %60 = getelementptr inbounds [3 x [3 x float]], ptr %59, i64 0, i64 2
  %61 = getelementptr inbounds [3 x float], ptr %60, i64 0, i64 2
  store float %58, ptr %61, align 4
  ret void

62:                                               ; preds = %48
  %63 = load ptr, ptr %11, align 8
  %64 = load i32, ptr %12, align 4
  %65 = insertvalue { ptr, i32 } poison, ptr %63, 0
  %66 = insertvalue { ptr, i32 } %65, i32 %64, 1
  resume { ptr, i32 } %66

67:                                               ; preds = %36
  unreachable
}